target datalayout = "e-m:e-p270:32:32-p271:32:32-p272:64:64-i64:64-i128:128-f80:128-n8:16:32:64-S128"
target triple = "x86_64-unknown-linux-gnu"

%struct.QTailQLink = type { ptr, ptr }
%struct.Object = type { ptr, ptr, ptr, i32, ptr }
%struct.AHCIDevice = type { %struct.IDEDMA, %struct.IDEBus, i32, i32, i32, %struct.AHCIPortRegs, ptr, ptr, ptr, ptr, i8, i32, i8, ptr, [32 x %struct.NCQTransferState], %struct.MemReentrancyGuard }
%struct.IDEDMA = type { ptr, %struct.QEMUIOVector, ptr }
%struct.QEMUIOVector = type { ptr, i32, %union.anon.3 }
%union.anon.3 = type { %struct.anon.4 }
%struct.anon.4 = type { i32, %struct.iovec }
%struct.iovec = type { ptr, i64 }
%struct.IDEBus = type { %struct.BusState, ptr, ptr, [2 x %struct.IDEState], ptr, i32, i32, ptr, i8, i8, ptr, i32, i8, i64, i32, %struct.PortioList, %struct.PortioList, ptr }
%struct.BusState = type { %struct.Object, ptr, ptr, ptr, i32, i8, i8, i32, %union.BusChildHead, %struct.BusStateEntry, %struct.ResettableState }
%union.BusChildHead = type { %struct.QTailQLink }
%struct.BusStateEntry = type { ptr, ptr }
%struct.ResettableState = type { i32, i8, i8 }
%struct.IDEState = type { ptr, i8, i32, i32, i32, i32, i32, i32, i32, i64, i32, i32, [512 x i8], i32, [21 x i8], [41 x i8], i64, i8, i8, i32, i8, i8, i8, i8, i8, i8, i8, i8, i8, i8, i8, i8, i8, ptr, [9 x i8], %struct.unreported_events, i8, i8, i8, i8, i8, i32, i32, i32, i32, i32, i32, %struct.BlockAcctCookie, ptr, %struct.QEMUIOVector, %struct.anon.6, i64, i32, %struct.QEMUSGList, i32, ptr, ptr, ptr, ptr, i32, i32, i32, i8, ptr, i32, i8, i32, ptr, i32, i32, i8, i8, i32, i8, ptr, i32 }
%struct.unreported_events = type { i8, i8 }
%struct.BlockAcctCookie = type { i64, i64, i32 }
%struct.anon.6 = type { ptr }
%struct.QEMUSGList = type { ptr, i32, i32, i64, ptr, ptr }
%struct.PortioList = type { ptr, ptr, ptr, i32, ptr, ptr, ptr, i8 }
%struct.AHCIPortRegs = type { i32, i32, i32, i32, i32, i32, i32, i32, i32, i32, i32, i32, i32, i32, i32, i32 }
%struct.NCQTransferState = type { ptr, ptr, ptr, %struct.QEMUSGList, %struct.BlockAcctCookie, i32, i64, i8, i8, i8, i8, i8 }
%struct.MemReentrancyGuard = type { i8 }
%struct.timeval = type { i64, i64 }
%struct.MemTxAttrs = type { i32 }

@trace_events_enabled_count = external global i32, align 4
@message_with_timestamp = external global i8, align 1
@qemu_loglevel = external global i32, align 4
@_TRACE_AHCI_DMA_RW_BUF_DSTATE = external global i16, align 2
@.str.184 = private unnamed_addr constant [52 x i8] c"%d@%zu.%06zu:ahci_dma_rw_buf ahci(%p)[%d] len=0x%x\0A\00", align 1
@.str.185 = private unnamed_addr constant [39 x i8] c"ahci_dma_rw_buf ahci(%p)[%d] len=0x%x\0A\00", align 1

; Function Attrs: nounwind sspstrong uwtable
define internal zeroext i1 @qemu_loglevel_mask(i32 noundef %mask) #0 {
entry:
  %mask.addr = alloca i32, align 4
  store i32 %mask, ptr %mask.addr, align 4
  %0 = load i32, ptr @qemu_loglevel, align 4
  %1 = load i32, ptr %mask.addr, align 4
  %and = and i32 %0, %1
  %cmp = icmp ne i32 %and, 0
  ret i1 %cmp
}

; Function Attrs: nounwind sspstrong uwtable
define internal void @_nocheck__trace_ahci_dma_rw_buf(ptr noundef %s, i32 noundef %port, i32 noundef %l) #0 {
entry:
  %s.addr = alloca ptr, align 8
  %port.addr = alloca i32, align 4
  %l.addr = alloca i32, align 4
  %_now = alloca %struct.timeval, align 8
  store ptr %s, ptr %s.addr, align 8
  store i32 %port, ptr %port.addr, align 4
  store i32 %l, ptr %l.addr, align 4
  %0 = load i32, ptr @trace_events_enabled_count, align 4
  %tobool = icmp ne i32 %0, 0
  %lnot = xor i1 %tobool, true
  %lnot1 = xor i1 %lnot, true
  %lnot.ext = zext i1 %lnot1 to i32
  %conv = sext i32 %lnot.ext to i64
  %tobool2 = icmp ne i64 %conv, 0
  br i1 %tobool2, label %land.lhs.true, label %if.end11

land.lhs.true:                                    ; preds = %entry
  %1 = load i16, ptr @_TRACE_AHCI_DMA_RW_BUF_DSTATE, align 2
  %conv3 = zext i16 %1 to i32
  %tobool4 = icmp ne i32 %conv3, 0
  br i1 %tobool4, label %land.lhs.true5, label %if.end11

land.lhs.true5:                                   ; preds = %land.lhs.true
  %call = call zeroext i1 @qemu_loglevel_mask(i32 noundef 32768)
  br i1 %call, label %if.then, label %if.end11

if.then:                                          ; preds = %land.lhs.true5
  %2 = load i8, ptr @message_with_timestamp, align 1
  %tobool7 = trunc i8 %2 to i1
  br i1 %tobool7, label %if.then8, label %if.else

if.then8:                                         ; preds = %if.then
  %call9 = call i32 @gettimeofday(ptr noundef %_now, ptr noundef null) #10
  %call10 = call i32 @qemu_get_thread_id()
  %tv_sec = getelementptr inbounds %struct.timeval, ptr %_now, i32 0, i32 0
  %3 = load i64, ptr %tv_sec, align 8
  %tv_usec = getelementptr inbounds %struct.timeval, ptr %_now, i32 0, i32 1
  %4 = load i64, ptr %tv_usec, align 8
  %5 = load ptr, ptr %s.addr, align 8
  %6 = load i32, ptr %port.addr, align 4
  %7 = load i32, ptr %l.addr, align 4
  call void (ptr, ...) @qemu_log(ptr noundef @.str.184, i32 noundef %call10, i64 noundef %3, i64 noundef %4, ptr noundef %5, i32 noundef %6, i32 noundef %7)
  br label %if.end

if.else:                                          ; preds = %if.then
  %8 = load ptr, ptr %s.addr, align 8
  %9 = load i32, ptr %port.addr, align 4
  %10 = load i32, ptr %l.addr, align 4
  call void (ptr, ...) @qemu_log(ptr noundef @.str.185, ptr noundef %8, i32 noundef %9, i32 noundef %10)
  br label %if.end

if.end:                                           ; preds = %if.else, %if.then8
  br label %if.end11

if.end11:                                         ; preds = %if.end, %land.lhs.true5, %land.lhs.true, %entry
  ret void
}

; Function Attrs: nounwind sspstrong uwtable
define internal void @trace_ahci_dma_rw_buf(ptr noundef %s, i32 noundef %port, i32 noundef %l) #0 {
entry:
  %s.addr = alloca ptr, align 8
  %port.addr = alloca i32, align 4
  %l.addr = alloca i32, align 4
  store ptr %s, ptr %s.addr, align 8
  store i32 %port, ptr %port.addr, align 4
  store i32 %l, ptr %l.addr, align 4
  %0 = load ptr, ptr %s.addr, align 8
  %1 = load i32, ptr %port.addr, align 4
  %2 = load i32, ptr %l.addr, align 4
  call void @_nocheck__trace_ahci_dma_rw_buf(ptr noundef %0, i32 noundef %1, i32 noundef %2)
  ret void
}

; Function Attrs: nounwind sspstrong uwtable
define internal i32 @ahci_dma_rw_buf(ptr noundef %dma, i1 noundef zeroext %is_write) #0 {
entry:
  %retval = alloca i32, align 4
  %dma.addr = alloca ptr, align 8
  %is_write.addr = alloca i8, align 1
  %ad = alloca ptr, align 8
  %tmp = alloca ptr, align 8
  %__mptr = alloca ptr, align 8
  %tmp1 = alloca ptr, align 8
  %s = alloca ptr, align 8
  %p = alloca ptr, align 8
  %l = alloca i32, align 4
  %.compoundliteral = alloca %struct.MemTxAttrs, align 4
  %.compoundliteral38 = alloca %struct.MemTxAttrs, align 4
  store ptr %dma, ptr %dma.addr, align 8
  %frombool = zext i1 %is_write to i8
  store i8 %frombool, ptr %is_write.addr, align 1
  %0 = load ptr, ptr %dma.addr, align 8
  store ptr %0, ptr %__mptr, align 8
  %1 = load ptr, ptr %__mptr, align 8
  %add.ptr = getelementptr i8, ptr %1, i64 0
  store ptr %add.ptr, ptr %tmp1, align 8
  %2 = load ptr, ptr %tmp1, align 8
  store ptr %2, ptr %tmp, align 8
  %3 = load ptr, ptr %tmp, align 8
  store ptr %3, ptr %ad, align 8
  %4 = load ptr, ptr %ad, align 8
  %port = getelementptr inbounds %struct.AHCIDevice, ptr %4, i32 0, i32 1
  %ifs = getelementptr inbounds %struct.IDEBus, ptr %port, i32 0, i32 3
  %arrayidx = getelementptr [2 x %struct.IDEState], ptr %ifs, i64 0, i64 0
  store ptr %arrayidx, ptr %s, align 8
  %5 = load ptr, ptr %s, align 8
  %io_buffer = getelementptr inbounds %struct.IDEState, ptr %5, i32 0, i32 58
  %6 = load ptr, ptr %io_buffer, align 8
  %7 = load ptr, ptr %s, align 8
  %io_buffer_index = getelementptr inbounds %struct.IDEState, ptr %7, i32 0, i32 43
  %8 = load i32, ptr %io_buffer_index, align 8
  %idx.ext = sext i32 %8 to i64
  %add.ptr2 = getelementptr i8, ptr %6, i64 %idx.ext
  store ptr %add.ptr2, ptr %p, align 8
  %9 = load ptr, ptr %s, align 8
  %io_buffer_size = getelementptr inbounds %struct.IDEState, ptr %9, i32 0, i32 52
  %10 = load i32, ptr %io_buffer_size, align 8
  %11 = load ptr, ptr %s, align 8
  %io_buffer_index3 = getelementptr inbounds %struct.IDEState, ptr %11, i32 0, i32 43
  %12 = load i32, ptr %io_buffer_index3, align 8
  %sub = sub i32 %10, %12
  store i32 %sub, ptr %l, align 4
  %13 = load ptr, ptr %ad, align 8
  %14 = load ptr, ptr %s, align 8
  %sg = getelementptr inbounds %struct.IDEState, ptr %14, i32 0, i32 53
  %15 = load ptr, ptr %ad, align 8
  %cur_cmd = getelementptr inbounds %struct.AHCIDevice, ptr %15, i32 0, i32 13
  %16 = load ptr, ptr %cur_cmd, align 8
  %17 = load i32, ptr %l, align 4
  %conv = sext i32 %17 to i64
  %18 = load ptr, ptr %s, align 8
  %io_buffer_offset = getelementptr inbounds %struct.IDEState, ptr %18, i32 0, i32 51
  %19 = load i64, ptr %io_buffer_offset, align 8
  %call = call i32 @ahci_populate_sglist(ptr noundef %13, ptr noundef %sg, ptr noundef %16, i64 noundef %conv, i64 noundef %19)
  %tobool = icmp ne i32 %call, 0
  br i1 %tobool, label %if.then, label %if.end

if.then:                                          ; preds = %entry
  store i32 0, ptr %retval, align 4
  br label %return

if.end:                                           ; preds = %entry
  %20 = load i8, ptr %is_write.addr, align 1
  %tobool4 = trunc i8 %20 to i1
  br i1 %tobool4, label %if.then5, label %if.else

if.then5:                                         ; preds = %if.end
  %21 = load ptr, ptr %p, align 8
  %22 = load i32, ptr %l, align 4
  %conv6 = sext i32 %22 to i64
  %23 = load ptr, ptr %s, align 8
  %sg7 = getelementptr inbounds %struct.IDEState, ptr %23, i32 0, i32 53
  %bf.load = load i32, ptr %.compoundliteral, align 4
  %bf.clear = and i32 %bf.load, -2
  %bf.set = or i32 %bf.clear, 1
  store i32 %bf.set, ptr %.compoundliteral, align 4
  %bf.load8 = load i32, ptr %.compoundliteral, align 4
  %bf.clear9 = and i32 %bf.load8, -3
  %bf.set10 = or i32 %bf.clear9, 0
  store i32 %bf.set10, ptr %.compoundliteral, align 4
  %bf.load11 = load i32, ptr %.compoundliteral, align 4
  %bf.clear12 = and i32 %bf.load11, -13
  %bf.set13 = or i32 %bf.clear12, 0
  store i32 %bf.set13, ptr %.compoundliteral, align 4
  %bf.load14 = load i32, ptr %.compoundliteral, align 4
  %bf.clear15 = and i32 %bf.load14, -17
  %bf.set16 = or i32 %bf.clear15, 0
  store i32 %bf.set16, ptr %.compoundliteral, align 4
  %bf.load17 = load i32, ptr %.compoundliteral, align 4
  %bf.clear18 = and i32 %bf.load17, -33
  %bf.set19 = or i32 %bf.clear18, 0
  store i32 %bf.set19, ptr %.compoundliteral, align 4
  %bf.load20 = load i32, ptr %.compoundliteral, align 4
  %bf.clear21 = and i32 %bf.load20, -4194241
  %bf.set22 = or i32 %bf.clear21, 0
  store i32 %bf.set22, ptr %.compoundliteral, align 4
  %bf.load23 = load i32, ptr %.compoundliteral, align 4
  %bf.clear24 = and i32 %bf.load23, -4194305
  %bf.set25 = or i32 %bf.clear24, 0
  store i32 %bf.set25, ptr %.compoundliteral, align 4
  %bf.load26 = load i32, ptr %.compoundliteral, align 4
  %bf.clear27 = and i32 %bf.load26, -8388609
  %bf.set28 = or i32 %bf.clear27, 0
  store i32 %bf.set28, ptr %.compoundliteral, align 4
  %bf.load29 = load i32, ptr %.compoundliteral, align 4
  %bf.clear30 = and i32 %bf.load29, -16777217
  %bf.set31 = or i32 %bf.clear30, 0
  store i32 %bf.set31, ptr %.compoundliteral, align 4
  %bf.load32 = load i32, ptr %.compoundliteral, align 4
  %bf.clear33 = and i32 %bf.load32, -33554433
  %bf.set34 = or i32 %bf.clear33, 0
  store i32 %bf.set34, ptr %.compoundliteral, align 4
  %coerce.dive = getelementptr inbounds %struct.MemTxAttrs, ptr %.compoundliteral, i32 0, i32 0
  %24 = load i32, ptr %coerce.dive, align 4
  %call35 = call i32 @dma_buf_read(ptr noundef %21, i64 noundef %conv6, ptr noundef null, ptr noundef %sg7, i32 %24)
  br label %if.end71

if.else:                                          ; preds = %if.end
  %25 = load ptr, ptr %p, align 8
  %26 = load i32, ptr %l, align 4
  %conv36 = sext i32 %26 to i64
  %27 = load ptr, ptr %s, align 8
  %sg37 = getelementptr inbounds %struct.IDEState, ptr %27, i32 0, i32 53
  %bf.load39 = load i32, ptr %.compoundliteral38, align 4
  %bf.clear40 = and i32 %bf.load39, -2
  %bf.set41 = or i32 %bf.clear40, 1
  store i32 %bf.set41, ptr %.compoundliteral38, align 4
  %bf.load42 = load i32, ptr %.compoundliteral38, align 4
  %bf.clear43 = and i32 %bf.load42, -3
  %bf.set44 = or i32 %bf.clear43, 0
  store i32 %bf.set44, ptr %.compoundliteral38, align 4
  %bf.load45 = load i32, ptr %.compoundliteral38, align 4
  %bf.clear46 = and i32 %bf.load45, -13
  %bf.set47 = or i32 %bf.clear46, 0
  store i32 %bf.set47, ptr %.compoundliteral38, align 4
  %bf.load48 = load i32, ptr %.compoundliteral38, align 4
  %bf.clear49 = and i32 %bf.load48, -17
  %bf.set50 = or i32 %bf.clear49, 0
  store i32 %bf.set50, ptr %.compoundliteral38, align 4
  %bf.load51 = load i32, ptr %.compoundliteral38, align 4
  %bf.clear52 = and i32 %bf.load51, -33
  %bf.set53 = or i32 %bf.clear52, 0
  store i32 %bf.set53, ptr %.compoundliteral38, align 4
  %bf.load54 = load i32, ptr %.compoundliteral38, align 4
  %bf.clear55 = and i32 %bf.load54, -4194241
  %bf.set56 = or i32 %bf.clear55, 0
  store i32 %bf.set56, ptr %.compoundliteral38, align 4
  %bf.load57 = load i32, ptr %.compoundliteral38, align 4
  %bf.clear58 = and i32 %bf.load57, -4194305
  %bf.set59 = or i32 %bf.clear58, 0
  store i32 %bf.set59, ptr %.compoundliteral38, align 4
  %bf.load60 = load i32, ptr %.compoundliteral38, align 4
  %bf.clear61 = and i32 %bf.load60, -8388609
  %bf.set62 = or i32 %bf.clear61, 0
  store i32 %bf.set62, ptr %.compoundliteral38, align 4
  %bf.load63 = load i32, ptr %.compoundliteral38, align 4
  %bf.clear64 = and i32 %bf.load63, -16777217
  %bf.set65 = or i32 %bf.clear64, 0
  store i32 %bf.set65, ptr %.compoundliteral38, align 4
  %bf.load66 = load i32, ptr %.compoundliteral38, align 4
  %bf.clear67 = and i32 %bf.load66, -33554433
  %bf.set68 = or i32 %bf.clear67, 0
  store i32 %bf.set68, ptr %.compoundliteral38, align 4
  %coerce.dive69 = getelementptr inbounds %struct.MemTxAttrs, ptr %.compoundliteral38, i32 0, i32 0
  %28 = load i32, ptr %coerce.dive69, align 4
  %call70 = call i32 @dma_buf_write(ptr noundef %25, i64 noundef %conv36, ptr noundef null, ptr noundef %sg37, i32 %28)
  br label %if.end71

if.end71:                                         ; preds = %if.else, %if.then5
  %29 = load ptr, ptr %s, align 8
  %30 = load i32, ptr %l, align 4
  call void @dma_buf_commit(ptr noundef %29, i32 noundef %30)
  %31 = load i32, ptr %l, align 4
  %32 = load ptr, ptr %s, align 8
  %io_buffer_index72 = getelementptr inbounds %struct.IDEState, ptr %32, i32 0, i32 43
  %33 = load i32, ptr %io_buffer_index72, align 8
  %add = add i32 %33, %31
  store i32 %add, ptr %io_buffer_index72, align 8
  %34 = load ptr, ptr %ad, align 8
  %hba = getelementptr inbounds %struct.AHCIDevice, ptr %34, i32 0, i32 6
  %35 = load ptr, ptr %hba, align 8
  %36 = load ptr, ptr %ad, align 8
  %port_no = getelementptr inbounds %struct.AHCIDevice, ptr %36, i32 0, i32 2
  %37 = load i32, ptr %port_no, align 8
  %38 = load i32, ptr %l, align 4
  call void @trace_ahci_dma_rw_buf(ptr noundef %35, i32 noundef %37, i32 noundef %38)
  store i32 1, ptr %retval, align 4
  br label %return

return:                                           ; preds = %if.end71, %if.then
  %39 = load i32, ptr %retval, align 4
  ret i32 %39
}