; Function Attrs: nounwind sspstrong uwtable
define internal range(i32 0, 2) i32 @ahci_dma_rw_buf(ptr noundef %dma, i1 noundef zeroext %is_write) #0 {
entry:
  %_now.i.i = alloca %struct.timeval, align 8
  %ifs = getelementptr inbounds nuw i8, ptr %dma, i64 192
  %io_buffer = getelementptr inbounds nuw i8, ptr %dma, i64 1080
  %0 = load ptr, ptr %io_buffer, align 8
  %io_buffer_index = getelementptr inbounds nuw i8, ptr %dma, i64 896
  %1 = load i32, ptr %io_buffer_index, align 8
  %idx.ext = sext i32 %1 to i64
  %add.ptr2 = getelementptr i8, ptr %0, i64 %idx.ext
  %io_buffer_size = getelementptr inbounds nuw i8, ptr %dma, i64 1000
  %2 = load i32, ptr %io_buffer_size, align 8
  %sub = sub i32 %2, %1
  %sg = getelementptr inbounds nuw i8, ptr %dma, i64 1008
  %cur_cmd = getelementptr inbounds nuw i8, ptr %dma, i64 2488
  %3 = load ptr, ptr %cur_cmd, align 8
  %conv = sext i32 %sub to i64
  %io_buffer_offset = getelementptr inbounds nuw i8, ptr %dma, i64 992
  %4 = load i64, ptr %io_buffer_offset, align 8
  %call = tail call fastcc i32 @ahci_populate_sglist(ptr noundef %dma, ptr noundef nonnull %sg, ptr noundef %3, i64 noundef %conv, i64 noundef %4)
  %tobool.not = icmp eq i32 %call, 0
  br i1 %tobool.not, label %if.end, label %return

if.end:                                           ; preds = %entry
  br i1 %is_write, label %if.then5, label %if.else

if.then5:                                         ; preds = %if.end
  %call35 = tail call i32 @dma_buf_read(ptr noundef %add.ptr2, i64 noundef %conv, ptr noundef null, ptr noundef nonnull %sg, i32 1) #12
  br label %if.end71

if.else:                                          ; preds = %if.end
  %call70 = tail call i32 @dma_buf_write(ptr noundef %add.ptr2, i64 noundef %conv, ptr noundef null, ptr noundef nonnull %sg, i32 1) #12
  br label %if.end71

if.end71:                                         ; preds = %if.else, %if.then5
  tail call void @dma_buf_commit(ptr noundef nonnull %ifs, i32 noundef %sub) #12
  %5 = load i32, ptr %io_buffer_index, align 8
  %add = add i32 %5, %sub
  store i32 %add, ptr %io_buffer_index, align 8
  %hba = getelementptr inbounds nuw i8, ptr %dma, i64 2440
  %6 = load ptr, ptr %hba, align 8
  %port_no = getelementptr inbounds nuw i8, ptr %dma, i64 2360
  %7 = load i32, ptr %port_no, align 8
  call void @llvm.lifetime.start.p0(i64 16, ptr nonnull %_now.i.i)
  %8 = load i32, ptr @trace_events_enabled_count, align 4
  %tobool.i.i = icmp ne i32 %8, 0
  %9 = load i16, ptr @_TRACE_AHCI_DMA_RW_BUF_DSTATE, align 2
  %tobool4.i.i = icmp ne i16 %9, 0
  %or.cond.i.i = select i1 %tobool.i.i, i1 %tobool4.i.i, i1 false
  br i1 %or.cond.i.i, label %land.lhs.true5.i.i, label %trace_ahci_dma_rw_buf.exit

land.lhs.true5.i.i:                               ; preds = %if.end71
  %10 = load i32, ptr @qemu_loglevel, align 4
  %and.i.i.i = and i32 %10, 32768
  %cmp.i.not.i.i = icmp eq i32 %and.i.i.i, 0
  br i1 %cmp.i.not.i.i, label %trace_ahci_dma_rw_buf.exit, label %if.then.i.i

if.then.i.i:                                      ; preds = %land.lhs.true5.i.i
  %11 = load i8, ptr @message_with_timestamp, align 1
  %tobool7.i.i = trunc i8 %11 to i1
  br i1 %tobool7.i.i, label %if.then8.i.i, label %if.else.i.i

if.then8.i.i:                                     ; preds = %if.then.i.i
  %call9.i.i = call i32 @gettimeofday(ptr noundef nonnull %_now.i.i, ptr noundef null) #12
  %call10.i.i = tail call i32 @qemu_get_thread_id() #12
  %12 = load i64, ptr %_now.i.i, align 8
  %tv_usec.i.i = getelementptr inbounds nuw i8, ptr %_now.i.i, i64 8
  %13 = load i64, ptr %tv_usec.i.i, align 8
  tail call void (ptr, ...) @qemu_log(ptr noundef nonnull @.str.184, i32 noundef %call10.i.i, i64 noundef %12, i64 noundef %13, ptr noundef %6, i32 noundef %7, i32 noundef %sub) #12
  br label %trace_ahci_dma_rw_buf.exit

if.else.i.i:                                      ; preds = %if.then.i.i
  tail call void (ptr, ...) @qemu_log(ptr noundef nonnull @.str.185, ptr noundef %6, i32 noundef %7, i32 noundef %sub) #12
  br label %trace_ahci_dma_rw_buf.exit

trace_ahci_dma_rw_buf.exit:                       ; preds = %if.end71, %land.lhs.true5.i.i, %if.then8.i.i, %if.else.i.i
  call void @llvm.lifetime.end.p0(i64 16, ptr nonnull %_now.i.i)
  br label %return

return:                                           ; preds = %entry, %trace_ahci_dma_rw_buf.exit
  %retval.0 = phi i32 [ 1, %trace_ahci_dma_rw_buf.exit ], [ 0, %entry ]
  ret i32 %retval.0
}